; Function Attrs: mustprogress uwtable
define hidden noundef i64 @_ZNK7nanogui7Texture15bytes_per_pixelEv(ptr nocapture noundef nonnull readonly align 8 dereferenceable(40) %0) local_unnamed_addr #0 align 2 personality ptr @__gxx_personality_v0 {
  %2 = getelementptr inbounds i8, ptr %0, i64 13
  %3 = load i8, ptr %2, align 1
  %switch.tableidx = add i8 %3, -1
  %4 = icmp ult i8 %switch.tableidx, 10
  br i1 %4, label %switch.hole_check, label %5

5:                                                ; preds = %switch.hole_check, %1
  %6 = tail call ptr @__cxa_allocate_exception(i64 16) #5
  invoke void @_ZNSt13runtime_errorC1EPKc(ptr noundef nonnull align 8 dereferenceable(16) %6, ptr noundef nonnull @.str.4)
          to label %7 unwind label %8

7:                                                ; preds = %5
  tail call void @__cxa_throw(ptr nonnull %6, ptr nonnull @_ZTISt13runtime_error, ptr nonnull @_ZNSt13runtime_errorD1Ev) #6
  unreachable

common.resume:                                    ; preds = %17, %8
  %.sink = phi ptr [ %15, %17 ], [ %6, %8 ]
  %common.resume.op = phi { ptr, i32 } [ %18, %17 ], [ %9, %8 ]
  tail call void @__cxa_free_exception(ptr %.sink) #5
  resume { ptr, i32 } %common.resume.op

8:                                                ; preds = %5
  %9 = landingpad { ptr, i32 }
          cleanup
  br label %common.resume

switch.hole_check:                                ; preds = %1
  %switch.maskindex = zext nneg i8 %switch.tableidx to i16
  %switch.shifted = lshr i16 831, %switch.maskindex
  %10 = and i16 %switch.shifted, 1
  %switch.lobit.not = icmp eq i16 %10, 0
  br i1 %switch.lobit.not, label %5, label %switch.lookup

switch.lookup:                                    ; preds = %switch.hole_check
  %11 = getelementptr inbounds i8, ptr %0, i64 12
  %12 = load i8, ptr %11, align 4
  %13 = icmp ult i8 %12, 8
  br i1 %13, label %switch.lookup3, label %14

14:                                               ; preds = %switch.lookup
  %15 = tail call ptr @__cxa_allocate_exception(i64 16) #5
  invoke void @_ZNSt13runtime_errorC1EPKc(ptr noundef nonnull align 8 dereferenceable(16) %15, ptr noundef nonnull @.str.5)
          to label %16 unwind label %17

16:                                               ; preds = %14
  tail call void @__cxa_throw(ptr nonnull %15, ptr nonnull @_ZTISt13runtime_error, ptr nonnull @_ZNSt13runtime_errorD1Ev) #6
  unreachable

17:                                               ; preds = %14
  %18 = landingpad { ptr, i32 }
          cleanup
  br label %common.resume

switch.lookup3:                                   ; preds = %switch.lookup
  %19 = zext nneg i8 %switch.tableidx to i64
  %switch.gep = getelementptr inbounds [10 x i64], ptr @switch.table._ZNK7nanogui7Texture15bytes_per_pixelEv, i64 0, i64 %19
  %switch.load = load i64, ptr %switch.gep, align 8
  %20 = zext nneg i8 %12 to i64
  %switch.gep4 = getelementptr inbounds [8 x i64], ptr @switch.table._ZNK7nanogui7Texture8channelsEv, i64 0, i64 %20
  %switch.load5 = load i64, ptr %switch.gep4, align 8
  %21 = mul nuw nsw i64 %switch.load5, %switch.load
  ret i64 %21
}